; Function Attrs: mustprogress nofree norecurse nosync nounwind willreturn memory(read, argmem: readwrite, inaccessiblemem: none) uwtable
define noundef ptr @_ZNK6icu_7517ResourceDataValue14getAliasStringERiR10UErrorCode(ptr nocapture noundef nonnull readonly align 8 dereferenceable(29) %this, ptr nocapture noundef nonnull writeonly align 4 dereferenceable(4) %length, ptr nocapture noundef nonnull align 4 dereferenceable(4) %errorCode) unnamed_addr #5 align 2 {
entry:
  %0 = load i32, ptr %errorCode, align 4
  %cmp.i = icmp slt i32 %0, 1
  br i1 %cmp.i, label %if.end, label %return

if.end:                                           ; preds = %entry
  %pResData.i = getelementptr inbounds i8, ptr %this, i64 8
  %1 = load ptr, ptr %pResData.i, align 8
  %res = getelementptr inbounds i8, ptr %this, i64 24
  %2 = load i32, ptr %res, align 8
  %and.i = and i32 %2, 268435455
  %shr.mask.i = and i32 %2, -268435456
  %cmp.i3 = icmp eq i32 %shr.mask.i, 805306368
  br i1 %cmp.i3, label %if.then.i, label %if.then4

if.then.i:                                        ; preds = %if.end
  %cmp1.i = icmp eq i32 %and.i, 0
  br i1 %cmp1.i, label %res_getAlias_75.exit, label %cond.false.i

cond.false.i:                                     ; preds = %if.then.i
  %pRoot.i = getelementptr inbounds i8, ptr %1, i64 8
  %3 = load ptr, ptr %pRoot.i, align 8
  %idx.ext.i = zext nneg i32 %and.i to i64
  %add.ptr.i = getelementptr inbounds i32, ptr %3, i64 %idx.ext.i
  br label %res_getAlias_75.exit

res_getAlias_75.exit:                             ; preds = %if.then.i, %cond.false.i
  %cond.i = phi ptr [ %add.ptr.i, %cond.false.i ], [ @_ZL12gEmptyString, %if.then.i ]
  %incdec.ptr.i = getelementptr inbounds i8, ptr %cond.i, i64 4
  %4 = load i32, ptr %cond.i, align 4
  store i32 %4, ptr %length, align 4
  br label %return

if.then4:                                         ; preds = %if.end
  store i32 0, ptr %length, align 4
  store i32 17, ptr %errorCode, align 4
  br label %return

return:                                           ; preds = %res_getAlias_75.exit, %if.then4, %entry
  %retval.0 = phi ptr [ null, %entry ], [ null, %if.then4 ], [ %incdec.ptr.i, %res_getAlias_75.exit ]
  ret ptr %retval.0
}